target datalayout = "e-m:e-p270:32:32-p271:32:32-p272:64:64-i64:64-i128:128-f80:128-n8:16:32:64-S128"
target triple = "x86_64-pc-linux-gnu"

%"struct.std::_Vector_base.46" = type { %"struct.std::_Vector_base<double, std::allocator<double>>::_Vector_impl" }
%"struct.std::_Vector_base<double, std::allocator<double>>::_Vector_impl" = type { %"struct.std::_Vector_base<double, std::allocator<double>>::_Vector_impl_data" }
%"struct.std::_Vector_base<double, std::allocator<double>>::_Vector_impl_data" = type { ptr, ptr, ptr }

; Function Attrs: mustprogress nounwind uwtable
define linkonce_odr noundef nonnull align 8 dereferenceable(8) ptr @_ZNKSt6vectorIdSaIdEEixEm(ptr noundef nonnull align 8 dereferenceable(24) %0, i64 noundef %1) #1 comdat align 2 {
  %3 = alloca ptr, align 8
  %4 = alloca i64, align 8
  store ptr %0, ptr %3, align 8, !tbaa !108
  store i64 %1, ptr %4, align 8, !tbaa !13
  %5 = load ptr, ptr %3, align 8
  %6 = getelementptr inbounds nuw %"struct.std::_Vector_base.46", ptr %5, i32 0, i32 0
  %7 = getelementptr inbounds nuw %"struct.std::_Vector_base<double, std::allocator<double>>::_Vector_impl_data", ptr %6, i32 0, i32 0
  %8 = load ptr, ptr %7, align 8, !tbaa !110
  %9 = load i64, ptr %4, align 8, !tbaa !13
  %10 = getelementptr inbounds nuw double, ptr %8, i64 %9
  ret ptr %10
}

; Function Attrs: mustprogress nounwind uwtable
define linkonce_odr noundef i64 @_ZNKSt6vectorIdSaIdEE4sizeEv(ptr noundef nonnull align 8 dereferenceable(24) %0) #1 comdat align 2 {
  %2 = alloca ptr, align 8
  store ptr %0, ptr %2, align 8, !tbaa !108
  %3 = load ptr, ptr %2, align 8
  %4 = getelementptr inbounds nuw %"struct.std::_Vector_base.46", ptr %3, i32 0, i32 0
  %5 = getelementptr inbounds nuw %"struct.std::_Vector_base<double, std::allocator<double>>::_Vector_impl_data", ptr %4, i32 0, i32 1
  %6 = load ptr, ptr %5, align 8, !tbaa !111
  %7 = getelementptr inbounds nuw %"struct.std::_Vector_base.46", ptr %3, i32 0, i32 0
  %8 = getelementptr inbounds nuw %"struct.std::_Vector_base<double, std::allocator<double>>::_Vector_impl_data", ptr %7, i32 0, i32 0
  %9 = load ptr, ptr %8, align 8, !tbaa !110
  %10 = ptrtoint ptr %6 to i64
  %11 = ptrtoint ptr %9 to i64
  %12 = sub i64 %10, %11
  %13 = sdiv exact i64 %12, 8
  ret i64 %13
}

; Function Attrs: mustprogress nounwind uwtable
define noundef double @_ZN19integrate_potential6l2normERKSt6vectorIdSaIdEE(ptr noundef nonnull align 8 dereferenceable(760) %0, ptr noundef nonnull align 8 dereferenceable(24) %1) #1 align 2 {
  %3 = alloca ptr, align 8
  %4 = alloca ptr, align 8
  %5 = alloca i64, align 8
  %6 = alloca double, align 8
  store ptr %0, ptr %3, align 8, !tbaa !576
  store ptr %1, ptr %4, align 8, !tbaa !108
  call void @llvm.lifetime.start.p0(i64 8, ptr %5) #6
  call void @llvm.lifetime.start.p0(i64 8, ptr %6) #6
  store double 0.000000e+00, ptr %6, align 8, !tbaa !82
  store i64 0, ptr %5, align 8, !tbaa !13
  br label %7

7:                                                ; preds = %23, %2
  %8 = load i64, ptr %5, align 8, !tbaa !13
  %9 = load ptr, ptr %4, align 8, !tbaa !108
  %10 = call noundef i64 @_ZNKSt6vectorIdSaIdEE4sizeEv(ptr noundef nonnull align 8 dereferenceable(24) %9) #6
  %11 = icmp ult i64 %8, %10
  br i1 %11, label %12, label %26

12:                                               ; preds = %7
  %13 = load ptr, ptr %4, align 8, !tbaa !108
  %14 = load i64, ptr %5, align 8, !tbaa !13
  %15 = call noundef nonnull align 8 dereferenceable(8) ptr @_ZNKSt6vectorIdSaIdEEixEm(ptr noundef nonnull align 8 dereferenceable(24) %13, i64 noundef %14) #6
  %16 = load double, ptr %15, align 8, !tbaa !82
  %17 = load ptr, ptr %4, align 8, !tbaa !108
  %18 = load i64, ptr %5, align 8, !tbaa !13
  %19 = call noundef nonnull align 8 dereferenceable(8) ptr @_ZNKSt6vectorIdSaIdEEixEm(ptr noundef nonnull align 8 dereferenceable(24) %17, i64 noundef %18) #6
  %20 = load double, ptr %19, align 8, !tbaa !82
  %21 = load double, ptr %6, align 8, !tbaa !82
  %22 = call double @llvm.fmuladd.f64(double %16, double %20, double %21)
  store double %22, ptr %6, align 8, !tbaa !82
  br label %23

23:                                               ; preds = %12
  %24 = load i64, ptr %5, align 8, !tbaa !13
  %25 = add i64 %24, 1
  store i64 %25, ptr %5, align 8, !tbaa !13
  br label %7, !llvm.loop !639

26:                                               ; preds = %7
  %27 = load double, ptr %6, align 8, !tbaa !82
  %28 = call double @sqrt(double noundef %27) #6, !tbaa !81
  call void @llvm.lifetime.end.p0(i64 8, ptr %6) #6
  call void @llvm.lifetime.end.p0(i64 8, ptr %5) #6
  ret double %28
}