; Function Attrs: mustprogress nofree nounwind memory(readwrite, inaccessiblemem: write) uwtable
define noundef double @_ZN19integrate_potential6l2normERKSt6vectorIdSaIdEE(ptr noundef nonnull readnone align 8 captures(none) dereferenceable(760) %0, ptr noundef nonnull readonly align 8 captures(none) dereferenceable(24) %1) local_unnamed_addr #21 align 2 {
  %3 = getelementptr inbounds nuw i8, ptr %1, i64 8
  %4 = load ptr, ptr %3, align 8, !tbaa !126
  %5 = load ptr, ptr %1, align 8, !tbaa !89
  %.not = icmp eq ptr %4, %5
  br i1 %.not, label %._crit_edge, label %.lr.ph.preheader

.lr.ph.preheader:                                 ; preds = %2
  %6 = ptrtoint ptr %4 to i64
  %7 = ptrtoint ptr %5 to i64
  %8 = sub i64 %6, %7
  %9 = ashr exact i64 %8, 3
  %umax = tail call i64 @llvm.umax.i64(i64 %9, i64 1)
  br label %.lr.ph

.lr.ph:                                           ; preds = %.lr.ph.preheader, %.lr.ph
  %.010 = phi double [ %12, %.lr.ph ], [ 0.000000e+00, %.lr.ph.preheader ]
  %.089 = phi i64 [ %13, %.lr.ph ], [ 0, %.lr.ph.preheader ]
  %10 = getelementptr inbounds nuw double, ptr %5, i64 %.089
  %11 = load double, ptr %10, align 8, !tbaa !90
  %12 = tail call double @llvm.fmuladd.f64(double %11, double %11, double %.010)
  %13 = add nuw i64 %.089, 1
  %exitcond.not = icmp eq i64 %13, %umax
  br i1 %exitcond.not, label %._crit_edge, label %.lr.ph, !llvm.loop !588

._crit_edge:                                      ; preds = %.lr.ph, %2
  %.0.lcssa = phi double [ 0.000000e+00, %2 ], [ %12, %.lr.ph ]
  %14 = tail call double @sqrt(double noundef %.0.lcssa) #26, !tbaa !83
  ret double %14
}